; Function Attrs: mustprogress nounwind uwtable
define dso_local noundef nonnull ptr @_ZN4llvm26AArch64GenRegisterBankInfo15getValueMappingENS0_17PartialMappingIdxENS_8TypeSizeE(i32 noundef %0, i64 %1, i8 %2) local_unnamed_addr #0 align 2 {
  %4 = alloca %"class.llvm::TypeSize", align 8
  call void @llvm.lifetime.start.p0(i64 16, ptr nonnull %4)
  store i64 %1, ptr %4, align 8
  %5 = getelementptr inbounds nuw i8, ptr %4, i64 8
  store i8 %2, ptr %5, align 8
  switch i32 %0, label %_ZN4llvm26AArch64GenRegisterBankInfo23getRegBankBaseIdxOffsetEjNS_8TypeSizeE.exit [
    i32 7, label %6
    i32 1, label %15
  ]

6:                                                ; preds = %3
  %7 = call noundef i64 @_ZNK4llvm8TypeSizecvmEv(ptr noundef nonnull align 8 dereferenceable(9) %4) #15
  %8 = icmp ult i64 %7, 33
  br i1 %8, label %select.unfold, label %9

9:                                                ; preds = %6
  %10 = call noundef i64 @_ZNK4llvm8TypeSizecvmEv(ptr noundef nonnull align 8 dereferenceable(9) %4) #15
  %11 = icmp ult i64 %10, 65
  br i1 %11, label %select.unfold, label %12

12:                                               ; preds = %9
  %13 = call noundef i64 @_ZNK4llvm8TypeSizecvmEv(ptr noundef nonnull align 8 dereferenceable(9) %4) #15
  %14 = icmp ult i64 %13, 129
  br i1 %14, label %select.unfold, label %_ZN4llvm26AArch64GenRegisterBankInfo23getRegBankBaseIdxOffsetEjNS_8TypeSizeE.exit

15:                                               ; preds = %3
  %16 = trunc i64 %1 to i32
  %17 = icmp ult i32 %16, 17
  br i1 %17, label %select.unfold, label %18

18:                                               ; preds = %15
  %19 = icmp ult i32 %16, 33
  br i1 %19, label %select.unfold, label %20

20:                                               ; preds = %18
  %21 = icmp ult i32 %16, 65
  br i1 %21, label %select.unfold, label %22

22:                                               ; preds = %20
  %23 = icmp ult i32 %16, 129
  br i1 %23, label %select.unfold, label %24

24:                                               ; preds = %22
  %25 = icmp ult i32 %16, 257
  br i1 %25, label %select.unfold, label %26

26:                                               ; preds = %24
  %27 = icmp ult i32 %16, 513
  br i1 %27, label %select.unfold, label %_ZN4llvm26AArch64GenRegisterBankInfo23getRegBankBaseIdxOffsetEjNS_8TypeSizeE.exit

_ZN4llvm26AArch64GenRegisterBankInfo23getRegBankBaseIdxOffsetEjNS_8TypeSizeE.exit: ; preds = %26, %12, %3
  call void @llvm.lifetime.end.p0(i64 16, ptr nonnull %4)
  br label %34

select.unfold:                                    ; preds = %26, %12, %6, %9, %15, %18, %20, %22, %24
  %.0.i.ph = phi i32 [ 4, %24 ], [ 3, %22 ], [ 2, %20 ], [ 1, %18 ], [ 0, %15 ], [ 1, %9 ], [ 0, %6 ], [ 2, %12 ], [ 5, %26 ]
  call void @llvm.lifetime.end.p0(i64 16, ptr nonnull %4)
  %28 = add nsw i32 %0, -1
  %29 = add nuw nsw i32 %28, %.0.i.ph
  %30 = mul nuw nsw i32 %29, 3
  %31 = add nuw nsw i32 %30, 1
  %32 = zext nneg i32 %31 to i64
  %33 = getelementptr inbounds [55 x %"struct.llvm::RegisterBankInfo::ValueMapping"], ptr @_ZN4llvm26AArch64GenRegisterBankInfo11ValMappingsE, i64 0, i64 %32
  br label %34

34:                                               ; preds = %_ZN4llvm26AArch64GenRegisterBankInfo23getRegBankBaseIdxOffsetEjNS_8TypeSizeE.exit, %select.unfold
  %.0 = phi ptr [ %33, %select.unfold ], [ @_ZN4llvm26AArch64GenRegisterBankInfo11ValMappingsE, %_ZN4llvm26AArch64GenRegisterBankInfo23getRegBankBaseIdxOffsetEjNS_8TypeSizeE.exit ]
  ret ptr %.0
}